; Function Attrs: mustprogress nounwind uwtable
define internal fastcc noundef ptr @_ZN12_GLOBAL__N_118HWAddressSanitizer12applyTagMaskERN4llvm9IRBuilderINS1_14ConstantFolderENS1_24IRBuilderDefaultInserterEEEPNS1_5ValueE(i64 %.184.val, ptr noundef nonnull align 8 dereferenceable(144) %0, ptr noundef %1) unnamed_addr #0 align 2 {
  %3 = alloca %"class.llvm::Twine", align 8
  %4 = alloca %"class.llvm::Twine", align 8
  %5 = icmp eq i64 %.184.val, 255
  br i1 %5, label %33, label %6

6:                                                ; preds = %2
  %7 = getelementptr inbounds nuw i8, ptr %1, i64 8
  %8 = load ptr, ptr %7, align 8
  %9 = tail call noundef ptr @_ZN4llvm11ConstantInt3getEPNS_4TypeEmb(ptr noundef %8, i64 noundef %.184.val, i1 noundef zeroext false) #20
  %10 = getelementptr inbounds nuw i8, ptr %4, i64 32
  store i16 257, ptr %10, align 8
  call void @llvm.lifetime.start.p0(i64 40, ptr nonnull %3)
  %11 = getelementptr inbounds nuw i8, ptr %0, i64 80
  %12 = load ptr, ptr %11, align 8
  %13 = load ptr, ptr %12, align 8
  %14 = getelementptr inbounds i8, ptr %13, i64 16
  %15 = load ptr, ptr %14, align 8
  %16 = tail call noundef ptr %15(ptr noundef nonnull align 8 dereferenceable(8) %12, i32 noundef 28, ptr noundef %1, ptr noundef %9) #20
  %.not.i = icmp eq ptr %16, null
  br i1 %.not.i, label %17, label %_ZN4llvm13IRBuilderBase9CreateAndEPNS_5ValueES2_RKNS_5TwineE.exit

17:                                               ; preds = %6
  %18 = getelementptr inbounds nuw i8, ptr %3, i64 32
  store i16 257, ptr %18, align 8
  %19 = call noundef ptr @_ZN4llvm14BinaryOperator6CreateENS_11Instruction9BinaryOpsEPNS_5ValueES4_RKNS_5TwineENS_14InsertPositionE(i32 noundef 28, ptr noundef nonnull %1, ptr noundef %9, ptr noundef nonnull align 8 dereferenceable(34) %3, ptr null, i64 0) #20
  %20 = getelementptr inbounds nuw i8, ptr %0, i64 88
  %21 = load ptr, ptr %20, align 8
  %22 = getelementptr inbounds nuw i8, ptr %0, i64 56
  %.sroa.0.0.copyload.i.i = load ptr, ptr %22, align 8
  %.sroa.2.0..sroa_idx.i.i = getelementptr inbounds i8, ptr %0, i64 64
  %.sroa.2.0.copyload.i.i = load i64, ptr %.sroa.2.0..sroa_idx.i.i, align 8
  %23 = load ptr, ptr %21, align 8
  %24 = getelementptr inbounds i8, ptr %23, i64 16
  %25 = load ptr, ptr %24, align 8
  call void %25(ptr noundef nonnull align 8 dereferenceable(8) %21, ptr noundef %19, ptr noundef nonnull align 8 dereferenceable(34) %4, ptr %.sroa.0.0.copyload.i.i, i64 %.sroa.2.0.copyload.i.i) #20
  %26 = load ptr, ptr %0, align 8
  %27 = call noundef i64 @_ZNK4llvm15SmallVectorBaseIjE4sizeEv(ptr noundef nonnull align 8 dereferenceable(16) %0) #20
  %28 = getelementptr inbounds %"struct.std::pair.344", ptr %26, i64 %27
  %.not10.i.i.i = icmp eq i64 %27, 0
  br i1 %.not10.i.i.i, label %_ZN4llvm13IRBuilderBase9CreateAndEPNS_5ValueES2_RKNS_5TwineE.exit, label %.lr.ph.i.i.i

.lr.ph.i.i.i:                                     ; preds = %17, %.lr.ph.i.i.i
  %.011.i.i.i = phi ptr [ %32, %.lr.ph.i.i.i ], [ %26, %17 ]
  %29 = load i32, ptr %.011.i.i.i, align 8
  %30 = getelementptr inbounds nuw i8, ptr %.011.i.i.i, i64 8
  %31 = load ptr, ptr %30, align 8
  call void @_ZN4llvm11Instruction11setMetadataEjPNS_6MDNodeE(ptr noundef nonnull align 8 dereferenceable(72) %19, i32 noundef %29, ptr noundef %31) #20
  %32 = getelementptr inbounds i8, ptr %.011.i.i.i, i64 16
  %.not.i.i.i = icmp eq ptr %32, %28
  br i1 %.not.i.i.i, label %_ZN4llvm13IRBuilderBase9CreateAndEPNS_5ValueES2_RKNS_5TwineE.exit, label %.lr.ph.i.i.i

_ZN4llvm13IRBuilderBase9CreateAndEPNS_5ValueES2_RKNS_5TwineE.exit: ; preds = %.lr.ph.i.i.i, %6, %17
  %.0.i = phi ptr [ %16, %6 ], [ %19, %17 ], [ %19, %.lr.ph.i.i.i ]
  call void @llvm.lifetime.end.p0(i64 40, ptr nonnull %3)
  br label %33

33:                                               ; preds = %2, %_ZN4llvm13IRBuilderBase9CreateAndEPNS_5ValueES2_RKNS_5TwineE.exit
  %.0 = phi ptr [ %.0.i, %_ZN4llvm13IRBuilderBase9CreateAndEPNS_5ValueES2_RKNS_5TwineE.exit ], [ %1, %2 ]
  ret ptr %.0
}